; Function Attrs: mustprogress uwtable
define hidden void @_ZN2dd11pdd_manager3addERKNS_3pddES3_(ptr dead_on_unwind noalias writable writeonly sret(%"class.dd::pdd") align 8 captures(none) initializes((0, 4), (8, 16)) %0, ptr noundef nonnull align 8 dereferenceable(952) %1, ptr noundef nonnull readonly align 8 captures(none) dereferenceable(16) %2, ptr noundef nonnull readonly align 8 captures(none) dereferenceable(16) %3) local_unnamed_addr #3 align 2 {
  %5 = load i32, ptr %2, align 8, !tbaa !119
  %6 = load i32, ptr %3, align 8, !tbaa !119
  %7 = tail call noundef i32 @_ZN2dd11pdd_manager5applyEjjNS0_6pdd_opE(ptr noundef nonnull align 8 dereferenceable(952) %1, i32 noundef %5, i32 noundef %6, i32 noundef 2)
  store i32 %7, ptr %0, align 8, !tbaa !119
  %8 = getelementptr inbounds nuw i8, ptr %0, i64 8
  store ptr %1, ptr %8, align 8, !tbaa !122
  %9 = load ptr, ptr %1, align 8, !tbaa !91
  %10 = zext i32 %7 to i64
  %11 = getelementptr inbounds nuw %"struct.dd::pdd_manager::node", ptr %9, i64 %10
  %12 = load i32, ptr %11, align 4
  %13 = and i32 %12, 1023
  %.not.i.i = icmp eq i32 %13, 1023
  br i1 %.not.i.i, label %_ZN2dd3pddC2EjPNS_11pdd_managerE.exit, label %14

14:                                               ; preds = %4
  %15 = add i32 %12, 1
  %16 = and i32 %15, 1023
  %17 = and i32 %12, -1024
  %18 = or disjoint i32 %16, %17
  store i32 %18, ptr %11, align 4
  br label %_ZN2dd3pddC2EjPNS_11pdd_managerE.exit

_ZN2dd3pddC2EjPNS_11pdd_managerE.exit:            ; preds = %4, %14
  ret void
}